target datalayout = "e-m:e-p270:32:32-p271:32:32-p272:64:64-i64:64-i128:128-f80:128-n8:16:32:64-S128"
target triple = "x86_64-pc-linux-gnu"

; Function Attrs: nounwind uwtable
define internal double @compute_dev_dbl(ptr noundef %0, double noundef %1, double noundef %2, i32 noundef %3, ptr noundef %4, ptr noundef %5) #2 {
  %7 = alloca ptr, align 8
  %8 = alloca double, align 8
  %9 = alloca double, align 8
  %10 = alloca i32, align 4
  %11 = alloca ptr, align 8
  %12 = alloca ptr, align 8
  %13 = alloca double, align 8
  store ptr %0, ptr %7, align 8, !tbaa !100
  store double %1, ptr %8, align 8, !tbaa !101
  store double %2, ptr %9, align 8, !tbaa !101
  store i32 %3, ptr %10, align 4, !tbaa !35
  store ptr %4, ptr %11, align 8, !tbaa !99
  store ptr %5, ptr %12, align 8, !tbaa !99
  call void @llvm.lifetime.start.p0(i64 8, ptr %13) #7
  %14 = load double, ptr %8, align 8, !tbaa !101
  %15 = load ptr, ptr %7, align 8, !tbaa !100
  %16 = getelementptr inbounds double, ptr %15, i64 0
  %17 = load double, ptr %16, align 8, !tbaa !101
  %18 = fadd nsz double %17, %14
  store double %18, ptr %16, align 8, !tbaa !101
  %19 = load double, ptr %9, align 8, !tbaa !101
  %20 = load ptr, ptr %7, align 8, !tbaa !100
  %21 = getelementptr inbounds double, ptr %20, i64 0
  %22 = load double, ptr %21, align 8, !tbaa !101
  %23 = fsub nsz double %22, %19
  store double %23, ptr %21, align 8, !tbaa !101
  %24 = load double, ptr %8, align 8, !tbaa !101
  %25 = load double, ptr %8, align 8, !tbaa !101
  %26 = load ptr, ptr %7, align 8, !tbaa !100
  %27 = getelementptr inbounds double, ptr %26, i64 1
  %28 = load double, ptr %27, align 8, !tbaa !101
  %29 = call nsz double @llvm.fmuladd.f64(double %24, double %25, double %28)
  store double %29, ptr %27, align 8, !tbaa !101
  %30 = load double, ptr %9, align 8, !tbaa !101
  %31 = load double, ptr %9, align 8, !tbaa !101
  %32 = load ptr, ptr %7, align 8, !tbaa !100
  %33 = getelementptr inbounds double, ptr %32, i64 1
  %34 = load double, ptr %33, align 8, !tbaa !101
  %35 = fneg nsz double %30
  %36 = call nsz double @llvm.fmuladd.f64(double %35, double %31, double %34)
  store double %36, ptr %33, align 8, !tbaa !101
  %37 = load ptr, ptr %7, align 8, !tbaa !100
  %38 = getelementptr inbounds double, ptr %37, i64 1
  %39 = load double, ptr %38, align 8, !tbaa !101
  %40 = call nsz double @llvm.maxnum.f64(double %39, double 0.000000e+00)
  %41 = load ptr, ptr %7, align 8, !tbaa !100
  %42 = getelementptr inbounds double, ptr %41, i64 1
  store double %40, ptr %42, align 8, !tbaa !101
  %43 = load ptr, ptr %7, align 8, !tbaa !100
  %44 = getelementptr inbounds double, ptr %43, i64 1
  %45 = load double, ptr %44, align 8, !tbaa !101
  %46 = load ptr, ptr %7, align 8, !tbaa !100
  %47 = getelementptr inbounds double, ptr %46, i64 0
  %48 = load double, ptr %47, align 8, !tbaa !101
  %49 = load ptr, ptr %7, align 8, !tbaa !100
  %50 = getelementptr inbounds double, ptr %49, i64 0
  %51 = load double, ptr %50, align 8, !tbaa !101
  %52 = fmul nsz double %48, %51
  %53 = load i32, ptr %10, align 4, !tbaa !35
  %54 = sitofp i32 %53 to double
  %55 = fdiv nsz double %52, %54
  %56 = fsub nsz double %45, %55
  %57 = call nsz double @llvm.maxnum.f64(double %56, double 0.000000e+00)
  %58 = load i32, ptr %10, align 4, !tbaa !35
  %59 = sitofp i32 %58 to double
  %60 = fdiv nsz double %57, %59
  store double %60, ptr %13, align 8, !tbaa !101
  %61 = load double, ptr %13, align 8, !tbaa !101
  %62 = call nsz double @llvm.sqrt.f64(double %61)
  call void @llvm.lifetime.end.p0(i64 8, ptr %13) #7
  ret double %62
}