; Function Attrs: mustprogress nofree norecurse nosync nounwind willreturn memory(argmem: readwrite) uwtable
define internal double @compute_dev_dbl(ptr noundef captures(none) %0, double noundef %1, double noundef %2, i32 noundef %3, ptr readnone captures(none) %4, ptr readnone captures(none) %5) #7 {
  %7 = load double, ptr %0, align 8, !tbaa !101
  %8 = fadd nsz double %1, %7
  %9 = fsub nsz double %8, %2
  store double %9, ptr %0, align 8, !tbaa !101
  %10 = getelementptr inbounds nuw i8, ptr %0, i64 8
  %11 = load double, ptr %10, align 8, !tbaa !101
  %12 = tail call nsz double @llvm.fmuladd.f64(double %1, double %1, double %11)
  %13 = fneg nsz double %2
  %14 = tail call nsz double @llvm.fmuladd.f64(double %13, double %2, double %12)
  %15 = tail call nsz double @llvm.maxnum.f64(double %14, double 0.000000e+00)
  store double %15, ptr %10, align 8, !tbaa !101
  %16 = fmul nsz double %9, %9
  %17 = sitofp i32 %3 to double
  %18 = fdiv nsz double %16, %17
  %19 = fsub nsz double %15, %18
  %20 = tail call nsz double @llvm.maxnum.f64(double %19, double 0.000000e+00)
  %21 = fdiv nsz double %20, %17
  %22 = tail call nsz double @llvm.sqrt.f64(double %21)
  ret double %22
}